; Function Attrs: mustprogress uwtable
define void @_ZN5faiss18ArrayInvertedLists6resizeEmm(ptr noundef nonnull readonly align 8 captures(none) dereferenceable(80) %0, i64 noundef %1, i64 noundef %2) unnamed_addr #2 align 2 personality ptr @__gxx_personality_v0 {
  %4 = getelementptr inbounds nuw i8, ptr %0, i64 56
  %5 = load ptr, ptr %4, align 8, !tbaa !42
  %6 = getelementptr inbounds nuw %"class.std::vector", ptr %5, i64 %1
  %7 = getelementptr inbounds nuw i8, ptr %6, i64 8
  %8 = load ptr, ptr %7, align 8, !tbaa !45
  %9 = load ptr, ptr %6, align 8, !tbaa !47
  %10 = ptrtoint ptr %8 to i64
  %11 = ptrtoint ptr %9 to i64
  %12 = sub i64 %10, %11
  %13 = ashr exact i64 %12, 3
  %14 = icmp ugt i64 %2, %13
  br i1 %14, label %15, label %17

15:                                               ; preds = %3
  %16 = sub nuw i64 %2, %13
  tail call void @_ZNSt6vectorIlSaIlEE17_M_default_appendEm(ptr noundef nonnull align 8 dereferenceable(24) %6, i64 noundef %16)
  br label %_ZNSt6vectorIlSaIlEE6resizeEm.exit

17:                                               ; preds = %3
  %18 = icmp ult i64 %2, %13
  br i1 %18, label %19, label %_ZNSt6vectorIlSaIlEE6resizeEm.exit

19:                                               ; preds = %17
  %20 = getelementptr inbounds nuw i64, ptr %9, i64 %2
  %.not.i.i = icmp eq ptr %8, %20
  br i1 %.not.i.i, label %_ZNSt6vectorIlSaIlEE6resizeEm.exit, label %21

21:                                               ; preds = %19
  store ptr %20, ptr %7, align 8, !tbaa !45
  br label %_ZNSt6vectorIlSaIlEE6resizeEm.exit

_ZNSt6vectorIlSaIlEE6resizeEm.exit:               ; preds = %15, %17, %19, %21
  %22 = getelementptr inbounds nuw i8, ptr %0, i64 32
  %23 = load ptr, ptr %22, align 8, !tbaa !48
  %24 = getelementptr inbounds nuw %"class.std::vector.20", ptr %23, i64 %1
  %25 = getelementptr inbounds nuw i8, ptr %0, i64 16
  %26 = load i64, ptr %25, align 8, !tbaa !10
  %27 = mul i64 %26, %2
  tail call void @_ZNSt6vectorIhSaIhEE6resizeEm(ptr noundef nonnull align 8 dereferenceable(24) %24, i64 noundef %27)
  ret void
}